target datalayout = "e-m:e-p270:32:32-p271:32:32-p272:64:64-i64:64-i128:128-f80:128-n8:16:32:64-S128"
target triple = "x86_64-pc-linux-gnu"

%"class.flatbuffers::VerifierTemplate" = type { ptr, i64, %"struct.flatbuffers::VerifierTemplate<false>::Options", i64, i32, i32, ptr }
%"struct.flatbuffers::VerifierTemplate<false>::Options" = type <{ i32, i32, i8, i8, [6 x i8], i64, i8, [7 x i8] }>
%class.anon = type { ptr, ptr, ptr }

; Function Attrs: mustprogress nounwind uwtable
define linkonce_odr dso_local noundef i32 @_ZN11flatbuffers12EndianScalarIjEET_S1_(i32 noundef %0) #1 comdat {
  %2 = alloca i32, align 4
  store i32 %0, ptr %2, align 4, !tbaa !17
  %3 = load i32, ptr %2, align 4, !tbaa !17
  ret i32 %3
}

; Function Attrs: inlinehint mustprogress nounwind uwtable
define linkonce_odr dso_local void @_ZN11flatbuffers11EndianCheckEv() #5 comdat {
  %1 = alloca i32, align 4
  call void @llvm.lifetime.start.p0(i64 4, ptr %1) #20
  store i32 1, ptr %1, align 4, !tbaa !17
  call void @llvm.lifetime.end.p0(i64 4, ptr %1) #20
  ret void
}

; Function Attrs: mustprogress uwtable
define linkonce_odr dso_local noundef ptr @_ZN11flatbuffers14GetMutableRootINS_5TableEEEPT_Pv(ptr noundef %0) #0 comdat {
  %2 = alloca ptr, align 8
  %3 = alloca ptr, align 8
  store ptr %0, ptr %3, align 8, !tbaa !13
  %4 = load ptr, ptr %3, align 8, !tbaa !13
  %5 = icmp ne ptr %4, null
  br i1 %5, label %7, label %6

6:                                                ; preds = %1
  store ptr null, ptr %2, align 8
  br label %14

7:                                                ; preds = %1
  call void @_ZN11flatbuffers11EndianCheckEv()
  %8 = load ptr, ptr %3, align 8, !tbaa !13
  %9 = load ptr, ptr %3, align 8, !tbaa !13
  %10 = load i32, ptr %9, align 4, !tbaa !17
  %11 = call noundef i32 @_ZN11flatbuffers12EndianScalarIjEET_S1_(i32 noundef %10)
  %12 = zext i32 %11 to i64
  %13 = getelementptr inbounds nuw i8, ptr %8, i64 %12
  store ptr %13, ptr %2, align 8
  br label %14

14:                                               ; preds = %7, %6
  %15 = load ptr, ptr %2, align 8
  ret ptr %15
}

; Function Attrs: mustprogress nounwind uwtable
define linkonce_odr dso_local noundef i32 @_ZNSt14numeric_limitsIiE3maxEv() #1 comdat align 2 {
  ret i32 2147483647
}

; Function Attrs: mustprogress uwtable
define linkonce_odr dso_local noundef ptr @_ZN11flatbuffers7GetRootINS_5TableEEEPKT_PKv(ptr noundef %0) #0 comdat {
  %2 = alloca ptr, align 8
  store ptr %0, ptr %2, align 8, !tbaa !13
  %3 = load ptr, ptr %2, align 8, !tbaa !13
  %4 = call noundef ptr @_ZN11flatbuffers14GetMutableRootINS_5TableEEEPT_Pv(ptr noundef %3)
  ret ptr %4
}

; Function Attrs: inlinehint mustprogress nounwind uwtable
define linkonce_odr dso_local void @_ZN11flatbuffers16VerifierTemplateILb0EE7OptionsC2Ev(ptr noundef nonnull align 8 dereferenceable(25) %0) unnamed_addr #5 comdat align 2 {
  %2 = alloca ptr, align 8
  store ptr %0, ptr %2, align 8, !tbaa !496
  %3 = load ptr, ptr %2, align 8
  %4 = getelementptr inbounds nuw %"struct.flatbuffers::VerifierTemplate<false>::Options", ptr %3, i32 0, i32 0
  store i32 64, ptr %4, align 8, !tbaa !490
  %5 = getelementptr inbounds nuw %"struct.flatbuffers::VerifierTemplate<false>::Options", ptr %3, i32 0, i32 1
  store i32 1000000, ptr %5, align 4, !tbaa !492
  %6 = getelementptr inbounds nuw %"struct.flatbuffers::VerifierTemplate<false>::Options", ptr %3, i32 0, i32 2
  store i8 1, ptr %6, align 8, !tbaa !494
  %7 = getelementptr inbounds nuw %"struct.flatbuffers::VerifierTemplate<false>::Options", ptr %3, i32 0, i32 3
  store i8 1, ptr %7, align 1, !tbaa !500
  %8 = getelementptr inbounds nuw %"struct.flatbuffers::VerifierTemplate<false>::Options", ptr %3, i32 0, i32 5
  %9 = call noundef i32 @_ZNSt14numeric_limitsIiE3maxEv() #20
  %10 = sext i32 %9 to i64
  store i64 %10, ptr %8, align 8, !tbaa !501
  %11 = getelementptr inbounds nuw %"struct.flatbuffers::VerifierTemplate<false>::Options", ptr %3, i32 0, i32 6
  store i8 0, ptr %11, align 8, !tbaa !502
  ret void
}

; Function Attrs: mustprogress uwtable
define linkonce_odr dso_local noundef ptr @_ZN11flatbuffers19GetSizePrefixedRootINS_5TableEjEEPKT_PKv(ptr noundef %0) #0 comdat {
  %2 = alloca ptr, align 8
  store ptr %0, ptr %2, align 8, !tbaa !13
  %3 = load ptr, ptr %2, align 8, !tbaa !13
  %4 = getelementptr inbounds nuw i8, ptr %3, i64 4
  %5 = call noundef ptr @_ZN11flatbuffers7GetRootINS_5TableEEEPKT_PKv(ptr noundef %4)
  ret ptr %5
}

; Function Attrs: mustprogress nounwind uwtable
define linkonce_odr dso_local void @_ZN11flatbuffers16VerifierTemplateILb0EEC2EPKhmRKNS1_7OptionsE(ptr noundef nonnull align 8 dereferenceable(72) %0, ptr noundef %1, i64 noundef %2, ptr noundef nonnull align 8 dereferenceable(25) %3) unnamed_addr #1 comdat align 2 {
  %5 = alloca ptr, align 8
  %6 = alloca ptr, align 8
  %7 = alloca i64, align 8
  %8 = alloca ptr, align 8
  store ptr %0, ptr %5, align 8, !tbaa !174
  store ptr %1, ptr %6, align 8, !tbaa !8
  store i64 %2, ptr %7, align 8, !tbaa !19
  store ptr %3, ptr %8, align 8, !tbaa !496
  %9 = load ptr, ptr %5, align 8
  %10 = getelementptr inbounds nuw %"class.flatbuffers::VerifierTemplate", ptr %9, i32 0, i32 0
  %11 = load ptr, ptr %6, align 8, !tbaa !8
  store ptr %11, ptr %10, align 8, !tbaa !333
  %12 = getelementptr inbounds nuw %"class.flatbuffers::VerifierTemplate", ptr %9, i32 0, i32 1
  %13 = load i64, ptr %7, align 8, !tbaa !19
  store i64 %13, ptr %12, align 8, !tbaa !347
  %14 = getelementptr inbounds nuw %"class.flatbuffers::VerifierTemplate", ptr %9, i32 0, i32 2
  %15 = load ptr, ptr %8, align 8, !tbaa !496
  call void @llvm.memcpy.p0.p0.i64(ptr align 8 %14, ptr align 8 %15, i64 32, i1 false), !tbaa.struct !495
  %16 = getelementptr inbounds nuw %"class.flatbuffers::VerifierTemplate", ptr %9, i32 0, i32 3
  store i64 0, ptr %16, align 8, !tbaa !498
  %17 = getelementptr inbounds nuw %"class.flatbuffers::VerifierTemplate", ptr %9, i32 0, i32 4
  store i32 0, ptr %17, align 8, !tbaa !342
  %18 = getelementptr inbounds nuw %"class.flatbuffers::VerifierTemplate", ptr %9, i32 0, i32 5
  store i32 0, ptr %18, align 4, !tbaa !343
  %19 = getelementptr inbounds nuw %"class.flatbuffers::VerifierTemplate", ptr %9, i32 0, i32 6
  store ptr null, ptr %19, align 8, !tbaa !499
  ret void
}

; Function Attrs: inlinehint mustprogress nounwind uwtable
define linkonce_odr dso_local void @_ZZN11flatbuffers16VerifierTemplateILb0EEC1EPKhmjjbENKUlvE_clEv(ptr dead_on_unwind noalias writable sret(%"struct.flatbuffers::VerifierTemplate<false>::Options") align 8 %0, ptr noundef nonnull align 8 dereferenceable(24) %1) #5 comdat align 2 {
  %3 = alloca ptr, align 8
  %4 = alloca %"struct.flatbuffers::VerifierTemplate<false>::Options", align 8
  store ptr %1, ptr %3, align 8, !tbaa !13
  %5 = load ptr, ptr %3, align 8
  call void @llvm.lifetime.start.p0(i64 32, ptr %4) #20
  call void @_ZN11flatbuffers16VerifierTemplateILb0EE7OptionsC2Ev(ptr noundef nonnull align 8 dereferenceable(25) %4) #20
  %6 = getelementptr inbounds nuw %class.anon, ptr %5, i32 0, i32 0
  %7 = load ptr, ptr %6, align 8, !tbaa !488
  %8 = load i32, ptr %7, align 4, !tbaa !17
  %9 = getelementptr inbounds nuw %"struct.flatbuffers::VerifierTemplate<false>::Options", ptr %4, i32 0, i32 0
  store i32 %8, ptr %9, align 8, !tbaa !490
  %10 = getelementptr inbounds nuw %class.anon, ptr %5, i32 0, i32 1
  %11 = load ptr, ptr %10, align 8, !tbaa !491
  %12 = load i32, ptr %11, align 4, !tbaa !17
  %13 = getelementptr inbounds nuw %"struct.flatbuffers::VerifierTemplate<false>::Options", ptr %4, i32 0, i32 1
  store i32 %12, ptr %13, align 4, !tbaa !492
  %14 = getelementptr inbounds nuw %class.anon, ptr %5, i32 0, i32 2
  %15 = load ptr, ptr %14, align 8, !tbaa !493
  %16 = load i8, ptr %15, align 1, !tbaa !53, !range !55, !noundef !56
  %17 = trunc i8 %16 to i1
  %18 = getelementptr inbounds nuw %"struct.flatbuffers::VerifierTemplate<false>::Options", ptr %4, i32 0, i32 2
  %19 = zext i1 %17 to i8
  store i8 %19, ptr %18, align 8, !tbaa !494
  call void @llvm.memcpy.p0.p0.i64(ptr align 8 %0, ptr align 8 %4, i64 32, i1 false), !tbaa.struct !495
  call void @llvm.lifetime.end.p0(i64 32, ptr %4) #20
  ret void
}

; Function Attrs: inlinehint mustprogress uwtable
define linkonce_odr dso_local noundef ptr @_ZN11flatbuffers22GetAnySizePrefixedRootEPKh(ptr noundef %0) #3 comdat {
  %2 = alloca ptr, align 8
  store ptr %0, ptr %2, align 8, !tbaa !8
  %3 = load ptr, ptr %2, align 8, !tbaa !8
  %4 = call noundef ptr @_ZN11flatbuffers19GetSizePrefixedRootINS_5TableEjEEPKT_PKv(ptr noundef %3)
  ret ptr %4
}

; Function Attrs: mustprogress uwtable
define linkonce_odr dso_local void @_ZN11flatbuffers16VerifierTemplateILb0EEC2EPKhmjjb(ptr noundef nonnull align 8 dereferenceable(72) %0, ptr noundef %1, i64 noundef %2, i32 noundef %3, i32 noundef %4, i1 noundef zeroext %5) unnamed_addr #0 comdat align 2 {
  %7 = alloca ptr, align 8
  %8 = alloca ptr, align 8
  %9 = alloca i64, align 8
  %10 = alloca i32, align 4
  %11 = alloca i32, align 4
  %12 = alloca i8, align 1
  %13 = alloca %"struct.flatbuffers::VerifierTemplate<false>::Options", align 8
  %14 = alloca %class.anon, align 8
  store ptr %0, ptr %7, align 8, !tbaa !174
  store ptr %1, ptr %8, align 8, !tbaa !8
  store i64 %2, ptr %9, align 8, !tbaa !19
  store i32 %3, ptr %10, align 4, !tbaa !17
  store i32 %4, ptr %11, align 4, !tbaa !17
  %15 = zext i1 %5 to i8
  store i8 %15, ptr %12, align 1, !tbaa !53
  %16 = load ptr, ptr %7, align 8
  %17 = load ptr, ptr %8, align 8, !tbaa !8
  %18 = load i64, ptr %9, align 8, !tbaa !19
  call void @llvm.lifetime.start.p0(i64 32, ptr %13) #20
  call void @llvm.lifetime.start.p0(i64 24, ptr %14) #20
  %19 = getelementptr inbounds nuw %class.anon, ptr %14, i32 0, i32 0
  store ptr %10, ptr %19, align 8, !tbaa !154
  %20 = getelementptr inbounds nuw %class.anon, ptr %14, i32 0, i32 1
  store ptr %11, ptr %20, align 8, !tbaa !154
  %21 = getelementptr inbounds nuw %class.anon, ptr %14, i32 0, i32 2
  store ptr %12, ptr %21, align 8, !tbaa !176
  call void @_ZZN11flatbuffers16VerifierTemplateILb0EEC1EPKhmjjbENKUlvE_clEv(ptr dead_on_unwind writable sret(%"struct.flatbuffers::VerifierTemplate<false>::Options") align 8 %13, ptr noundef nonnull align 8 dereferenceable(24) %14)
  call void @_ZN11flatbuffers16VerifierTemplateILb0EEC2EPKhmRKNS1_7OptionsE(ptr noundef nonnull align 8 dereferenceable(72) %16, ptr noundef %17, i64 noundef %18, ptr noundef nonnull align 8 dereferenceable(25) %13)
  call void @llvm.lifetime.end.p0(i64 24, ptr %14) #20
  call void @llvm.lifetime.end.p0(i64 32, ptr %13) #20
  ret void
}

; Function Attrs: mustprogress uwtable
define dso_local noundef zeroext i1 @_ZN11flatbuffers18VerifySizePrefixedERKN10reflection6SchemaERKNS0_6ObjectEPKhmjj(ptr noundef nonnull align 1 dereferenceable(1) %0, ptr noundef nonnull align 1 dereferenceable(1) %1, ptr noundef %2, i64 noundef %3, i32 noundef %4, i32 noundef %5) #0 {
  %7 = alloca ptr, align 8
  %8 = alloca ptr, align 8
  %9 = alloca ptr, align 8
  %10 = alloca i64, align 8
  %11 = alloca i32, align 4
  %12 = alloca i32, align 4
  %13 = alloca %"class.flatbuffers::VerifierTemplate", align 8
  store ptr %0, ptr %7, align 8, !tbaa !27
  store ptr %1, ptr %8, align 8, !tbaa !29
  store ptr %2, ptr %9, align 8, !tbaa !8
  store i64 %3, ptr %10, align 8, !tbaa !19
  store i32 %4, ptr %11, align 4, !tbaa !17
  store i32 %5, ptr %12, align 4, !tbaa !17
  call void @llvm.lifetime.start.p0(i64 72, ptr %13) #20
  %14 = load ptr, ptr %9, align 8, !tbaa !8
  %15 = load i64, ptr %10, align 8, !tbaa !19
  %16 = load i32, ptr %11, align 4, !tbaa !17
  %17 = load i32, ptr %12, align 4, !tbaa !17
  call void @_ZN11flatbuffers16VerifierTemplateILb0EEC2EPKhmjjb(ptr noundef nonnull align 8 dereferenceable(72) %13, ptr noundef %14, i64 noundef %15, i32 noundef %16, i32 noundef %17, i1 noundef zeroext true)
  %18 = load ptr, ptr %7, align 8, !tbaa !27
  %19 = load ptr, ptr %8, align 8, !tbaa !29
  %20 = load ptr, ptr %9, align 8, !tbaa !8
  %21 = call noundef ptr @_ZN11flatbuffers22GetAnySizePrefixedRootEPKh(ptr noundef %20)
  %22 = call noundef zeroext i1 @_ZN11flatbuffers12_GLOBAL__N_112VerifyObjectERNS_16VerifierTemplateILb0EEERKN10reflection6SchemaERKNS4_6ObjectEPKNS_5TableEb(ptr noundef nonnull align 8 dereferenceable(72) %13, ptr noundef nonnull align 1 dereferenceable(1) %18, ptr noundef nonnull align 1 dereferenceable(1) %19, ptr noundef %21, i1 noundef zeroext true)
  call void @llvm.lifetime.end.p0(i64 72, ptr %13) #20
  ret i1 %22
}